target datalayout = "e-m:e-p270:32:32-p271:32:32-p272:64:64-i64:64-i128:128-f80:128-n8:16:32:64-S128"
target triple = "x86_64-pc-linux-gnu"

%struct.AVFormatContext = type { ptr, ptr, ptr, ptr, ptr, i32, i32, ptr, i32, ptr, i32, ptr, ptr, i64, i64, i64, i32, i32, i32, i64, i64, ptr, i32, i32, ptr, i32, i32, i32, i32, ptr, i64, i32, i32, %struct.AVIOInterruptCB, i32, i32, i32, i32, i64, i32, i32, i32, i32, i32, i32, i32, i32, i32, i32, i32, i32, i64, i32, i32, i32, i32, i32, ptr, ptr, ptr, ptr, i32, ptr, ptr, ptr, ptr, i32, ptr, ptr, i64, ptr, ptr, ptr, i64 }
%struct.AVIOInterruptCB = type { ptr, ptr }
%struct.AVStream = type { ptr, i32, i32, ptr, ptr, %struct.AVRational, i64, i64, i64, i32, i32, %struct.AVRational, ptr, %struct.AVRational, %struct.AVPacket, i32, %struct.AVRational, i32 }
%struct.AVPacket = type { ptr, i64, i64, ptr, i32, i32, i32, ptr, i32, i64, i64, ptr, ptr, %struct.AVRational }
%struct.AVRational = type { i32, i32 }
%struct.AVCodecParameters = type { i32, i32, i32, ptr, i32, ptr, i32, i32, i64, i32, i32, i32, i32, i32, i32, %struct.AVRational, %struct.AVRational, i32, i32, i32, i32, i32, i32, i32, %struct.AVChannelLayout, i32, i32, i32, i32, i32, i32 }
%struct.AVChannelLayout = type { i32, i32, %union.anon, ptr }
%union.anon = type { i64 }
%struct.CAFContext = type { i64, i32, i32, i32 }

; Function Attrs: nounwind uwtable
define internal i32 @caf_write_packet(ptr noundef %0, ptr noundef %1) #0 {
  %3 = alloca i32, align 4
  %4 = alloca ptr, align 8
  %5 = alloca ptr, align 8
  %6 = alloca ptr, align 8
  %7 = alloca ptr, align 8
  %8 = alloca ptr, align 8
  %9 = alloca i32, align 4
  %10 = alloca i32, align 4
  %11 = alloca i32, align 4
  %12 = alloca i32, align 4
  store ptr %0, ptr %4, align 8, !tbaa !4
  store ptr %1, ptr %5, align 8, !tbaa !66
  call void @llvm.lifetime.start.p0(i64 8, ptr %6) #5
  %13 = load ptr, ptr %4, align 8, !tbaa !4
  %14 = getelementptr inbounds nuw %struct.AVFormatContext, ptr %13, i32 0, i32 3
  %15 = load ptr, ptr %14, align 8, !tbaa !38
  store ptr %15, ptr %6, align 8, !tbaa !39
  call void @llvm.lifetime.start.p0(i64 8, ptr %7) #5
  %16 = load ptr, ptr %4, align 8, !tbaa !4
  %17 = getelementptr inbounds nuw %struct.AVFormatContext, ptr %16, i32 0, i32 7
  %18 = load ptr, ptr %17, align 8, !tbaa !27
  %19 = getelementptr inbounds ptr, ptr %18, i64 0
  %20 = load ptr, ptr %19, align 8, !tbaa !28
  store ptr %20, ptr %7, align 8, !tbaa !28
  %21 = load ptr, ptr %7, align 8, !tbaa !28
  %22 = getelementptr inbounds nuw %struct.AVStream, ptr %21, i32 0, i32 3
  %23 = load ptr, ptr %22, align 8, !tbaa !30
  %24 = getelementptr inbounds nuw %struct.AVCodecParameters, ptr %23, i32 0, i32 26
  %25 = load i32, ptr %24, align 4, !tbaa !50
  %26 = icmp ne i32 %25, 0
  br i1 %26, label %98, label %27

27:                                               ; preds = %2
  call void @llvm.lifetime.start.p0(i64 8, ptr %8) #5
  call void @llvm.lifetime.start.p0(i64 4, ptr %9) #5
  call void @llvm.lifetime.start.p0(i64 4, ptr %10) #5
  %28 = load ptr, ptr %6, align 8, !tbaa !39
  %29 = getelementptr inbounds nuw %struct.CAFContext, ptr %28, i32 0, i32 2
  %30 = load i32, ptr %29, align 4, !tbaa !68
  %31 = add i32 %30, 5
  store i32 %31, ptr %10, align 4, !tbaa !45
  %32 = load i32, ptr %10, align 4, !tbaa !45
  %33 = icmp slt i32 %32, 0
  br i1 %33, label %34, label %35

34:                                               ; preds = %27
  store i32 -34, ptr %3, align 4
  store i32 1, ptr %11, align 4
  br label %95

35:                                               ; preds = %27
  %36 = load ptr, ptr %7, align 8, !tbaa !28
  %37 = getelementptr inbounds nuw %struct.AVStream, ptr %36, i32 0, i32 4
  %38 = load ptr, ptr %37, align 8, !tbaa !69
  %39 = load ptr, ptr %6, align 8, !tbaa !39
  %40 = getelementptr inbounds nuw %struct.CAFContext, ptr %39, i32 0, i32 1
  %41 = load i32, ptr %10, align 4, !tbaa !45
  %42 = sext i32 %41 to i64
  %43 = call ptr @av_fast_realloc(ptr noundef %38, ptr noundef %40, i64 noundef %42)
  store ptr %43, ptr %8, align 8, !tbaa !70
  %44 = load ptr, ptr %8, align 8, !tbaa !70
  %45 = icmp ne ptr %44, null
  br i1 %45, label %47, label %46

46:                                               ; preds = %35
  store i32 -12, ptr %3, align 4
  store i32 1, ptr %11, align 4
  br label %95

47:                                               ; preds = %35
  %48 = load ptr, ptr %8, align 8, !tbaa !70
  %49 = load ptr, ptr %7, align 8, !tbaa !28
  %50 = getelementptr inbounds nuw %struct.AVStream, ptr %49, i32 0, i32 4
  store ptr %48, ptr %50, align 8, !tbaa !69
  store i32 4, ptr %9, align 4, !tbaa !45
  br label %51

51:                                               ; preds = %75, %47
  %52 = load i32, ptr %9, align 4, !tbaa !45
  %53 = icmp sgt i32 %52, 0
  br i1 %53, label %54, label %78

54:                                               ; preds = %51
  call void @llvm.lifetime.start.p0(i64 4, ptr %12) #5
  %55 = load ptr, ptr %5, align 8, !tbaa !66
  %56 = getelementptr inbounds nuw %struct.AVPacket, ptr %55, i32 0, i32 4
  %57 = load i32, ptr %56, align 8, !tbaa !71
  %58 = load i32, ptr %9, align 4, !tbaa !45
  %59 = mul nsw i32 %58, 7
  %60 = ashr i32 %57, %59
  store i32 %60, ptr %12, align 4, !tbaa !45
  %61 = load i32, ptr %12, align 4, !tbaa !45
  %62 = icmp ne i32 %61, 0
  br i1 %62, label %63, label %74

63:                                               ; preds = %54
  %64 = load i32, ptr %12, align 4, !tbaa !45
  %65 = or i32 128, %64
  %66 = trunc i32 %65 to i8
  %67 = load ptr, ptr %8, align 8, !tbaa !70
  %68 = load ptr, ptr %6, align 8, !tbaa !39
  %69 = getelementptr inbounds nuw %struct.CAFContext, ptr %68, i32 0, i32 2
  %70 = load i32, ptr %69, align 4, !tbaa !68
  %71 = add nsw i32 %70, 1
  store i32 %71, ptr %69, align 4, !tbaa !68
  %72 = sext i32 %70 to i64
  %73 = getelementptr inbounds i8, ptr %67, i64 %72
  store i8 %66, ptr %73, align 1, !tbaa !54
  br label %74

74:                                               ; preds = %63, %54
  call void @llvm.lifetime.end.p0(i64 4, ptr %12) #5
  br label %75

75:                                               ; preds = %74
  %76 = load i32, ptr %9, align 4, !tbaa !45
  %77 = add nsw i32 %76, -1
  store i32 %77, ptr %9, align 4, !tbaa !45
  br label %51, !llvm.loop !72

78:                                               ; preds = %51
  %79 = load ptr, ptr %5, align 8, !tbaa !66
  %80 = getelementptr inbounds nuw %struct.AVPacket, ptr %79, i32 0, i32 4
  %81 = load i32, ptr %80, align 8, !tbaa !71
  %82 = and i32 %81, 127
  %83 = trunc i32 %82 to i8
  %84 = load ptr, ptr %8, align 8, !tbaa !70
  %85 = load ptr, ptr %6, align 8, !tbaa !39
  %86 = getelementptr inbounds nuw %struct.CAFContext, ptr %85, i32 0, i32 2
  %87 = load i32, ptr %86, align 4, !tbaa !68
  %88 = add nsw i32 %87, 1
  store i32 %88, ptr %86, align 4, !tbaa !68
  %89 = sext i32 %87 to i64
  %90 = getelementptr inbounds i8, ptr %84, i64 %89
  store i8 %83, ptr %90, align 1, !tbaa !54
  %91 = load ptr, ptr %6, align 8, !tbaa !39
  %92 = getelementptr inbounds nuw %struct.CAFContext, ptr %91, i32 0, i32 3
  %93 = load i32, ptr %92, align 8, !tbaa !73
  %94 = add nsw i32 %93, 1
  store i32 %94, ptr %92, align 8, !tbaa !73
  store i32 0, ptr %11, align 4
  br label %95

95:                                               ; preds = %78, %46, %34
  call void @llvm.lifetime.end.p0(i64 4, ptr %10) #5
  call void @llvm.lifetime.end.p0(i64 4, ptr %9) #5
  call void @llvm.lifetime.end.p0(i64 8, ptr %8) #5
  %96 = load i32, ptr %11, align 4
  switch i32 %96, label %108 [
    i32 0, label %97
  ]

97:                                               ; preds = %95
  br label %98

98:                                               ; preds = %97, %2
  %99 = load ptr, ptr %4, align 8, !tbaa !4
  %100 = getelementptr inbounds nuw %struct.AVFormatContext, ptr %99, i32 0, i32 4
  %101 = load ptr, ptr %100, align 8, !tbaa !9
  %102 = load ptr, ptr %5, align 8, !tbaa !66
  %103 = getelementptr inbounds nuw %struct.AVPacket, ptr %102, i32 0, i32 3
  %104 = load ptr, ptr %103, align 8, !tbaa !74
  %105 = load ptr, ptr %5, align 8, !tbaa !66
  %106 = getelementptr inbounds nuw %struct.AVPacket, ptr %105, i32 0, i32 4
  %107 = load i32, ptr %106, align 8, !tbaa !71
  call void @avio_write(ptr noundef %101, ptr noundef %104, i32 noundef %107)
  store i32 0, ptr %3, align 4
  store i32 1, ptr %11, align 4
  br label %108

108:                                              ; preds = %98, %95
  call void @llvm.lifetime.end.p0(i64 8, ptr %7) #5
  call void @llvm.lifetime.end.p0(i64 8, ptr %6) #5
  %109 = load i32, ptr %3, align 4
  ret i32 %109
}