; Function Attrs: nounwind uwtable
define internal range(i32 -34, 1) i32 @caf_write_packet(ptr noundef readonly captures(none) %0, ptr noundef readonly captures(none) %1) #0 {
  %3 = getelementptr inbounds nuw i8, ptr %0, i64 24
  %4 = load ptr, ptr %3, align 8, !tbaa !34
  %5 = getelementptr inbounds nuw i8, ptr %0, i64 48
  %6 = load ptr, ptr %5, align 8, !tbaa !24
  %7 = load ptr, ptr %6, align 8, !tbaa !25
  %8 = getelementptr inbounds nuw i8, ptr %7, i64 16
  %9 = load ptr, ptr %8, align 8, !tbaa !27
  %10 = getelementptr inbounds nuw i8, ptr %9, i64 156
  %11 = load i32, ptr %10, align 4, !tbaa !41
  %.not = icmp eq i32 %11, 0
  br i1 %.not, label %12, label %50

12:                                               ; preds = %2
  %13 = getelementptr inbounds nuw i8, ptr %4, i64 12
  %14 = load i32, ptr %13, align 4, !tbaa !57
  %15 = add i32 %14, 5
  %16 = icmp slt i32 %15, 0
  br i1 %16, label %.thread, label %17

17:                                               ; preds = %12
  %18 = getelementptr inbounds nuw i8, ptr %7, i64 24
  %19 = load ptr, ptr %18, align 8, !tbaa !58
  %20 = getelementptr inbounds nuw i8, ptr %4, i64 8
  %21 = zext nneg i32 %15 to i64
  %22 = tail call ptr @av_fast_realloc(ptr noundef %19, ptr noundef nonnull %20, i64 noundef %21) #4
  %.not32 = icmp eq ptr %22, null
  br i1 %.not32, label %.thread, label %23

23:                                               ; preds = %17
  store ptr %22, ptr %18, align 8, !tbaa !58
  %24 = getelementptr inbounds nuw i8, ptr %1, i64 32
  br label %25

25:                                               ; preds = %23, %36
  %.02836 = phi i32 [ 4, %23 ], [ %37, %36 ]
  %26 = load i32, ptr %24, align 8, !tbaa !59
  %27 = mul nuw nsw i32 %.02836, 7
  %28 = ashr i32 %26, %27
  %.not33 = icmp eq i32 %28, 0
  br i1 %.not33, label %36, label %29

29:                                               ; preds = %25
  %30 = trunc i32 %28 to i8
  %31 = or i8 %30, -128
  %32 = load i32, ptr %13, align 4, !tbaa !57
  %33 = add nsw i32 %32, 1
  store i32 %33, ptr %13, align 4, !tbaa !57
  %34 = sext i32 %32 to i64
  %35 = getelementptr inbounds i8, ptr %22, i64 %34
  store i8 %31, ptr %35, align 1, !tbaa !45
  br label %36

36:                                               ; preds = %29, %25
  %37 = add nsw i32 %.02836, -1
  %38 = icmp samesign ugt i32 %.02836, 1
  br i1 %38, label %25, label %39, !llvm.loop !60

39:                                               ; preds = %36
  %40 = load i32, ptr %24, align 8, !tbaa !59
  %41 = trunc i32 %40 to i8
  %42 = and i8 %41, 127
  %43 = load i32, ptr %13, align 4, !tbaa !57
  %44 = add nsw i32 %43, 1
  store i32 %44, ptr %13, align 4, !tbaa !57
  %45 = sext i32 %43 to i64
  %46 = getelementptr inbounds i8, ptr %22, i64 %45
  store i8 %42, ptr %46, align 1, !tbaa !45
  %47 = getelementptr inbounds nuw i8, ptr %4, i64 16
  %48 = load i32, ptr %47, align 8, !tbaa !61
  %49 = add nsw i32 %48, 1
  store i32 %49, ptr %47, align 8, !tbaa !61
  br label %50

50:                                               ; preds = %39, %2
  %51 = getelementptr inbounds nuw i8, ptr %0, i64 32
  %52 = load ptr, ptr %51, align 8, !tbaa !4
  %53 = getelementptr inbounds nuw i8, ptr %1, i64 24
  %54 = load ptr, ptr %53, align 8, !tbaa !62
  %55 = getelementptr inbounds nuw i8, ptr %1, i64 32
  %56 = load i32, ptr %55, align 8, !tbaa !59
  tail call void @avio_write(ptr noundef %52, ptr noundef %54, i32 noundef %56) #4
  br label %.thread

.thread:                                          ; preds = %17, %12, %50
  %.1 = phi i32 [ 0, %50 ], [ -12, %17 ], [ -34, %12 ]
  ret i32 %.1
}